Certificate:
    Data:
        Version: 3 (0x2)
        Serial Number: 1 (0x1)
        Signature Algorithm: sha256WithRSAEncryption
        Issuer: C=CN, ST=Beijing, L=Beijing, O=tsls, OU=tsls, CN=localhost/emailAddress=admin@tsls.com
        Validity
            Not Before: Dec 13 20:17:00 2018 GMT
            Not After : Dec 13 20:17:00 2019 GMT
        Subject: C=CN, ST=Beijing, O=tsls, OU=tsls, CN=localhost/emailAddress=admin@tsls.com
        Subject Public Key Info:
            Public Key Algorithm: rsaEncryption
                RSA Public-Key: (2048 bit)
                Modulus:
                    00:bd:39:50:32:af:42:ab:67:11:37:47:c8:23:a5:
                    1a:13:51:25:46:ab:89:06:28:61:f0:56:1f:5a:15:
                    7e:20:f1:64:a1:b4:b8:dd:ad:94:6f:b2:70:e6:39:
                    22:c7:4a:99:0e:2f:bd:24:10:11:5c:78:df:ea:c2:
                    a5:e0:f7:9f:c9:3f:ef:b9:c3:c9:8d:01:64:cb:55:
                    c8:cf:e7:da:7f:8f:af:b0:7e:04:27:99:37:19:7c:
                    5e:55:2d:49:d7:55:96:d8:c0:31:c0:91:b6:81:92:
                    21:61:12:37:11:6c:36:fb:6a:86:5c:e6:df:f0:d9:
                    d6:40:03:c8:43:6a:58:9c:d9:7a:83:e5:49:30:fa:
                    8c:cb:fe:e1:8f:64:f1:2a:08:86:e0:e7:76:65:ad:
                    67:94:26:78:26:cf:ba:5b:30:32:de:c2:88:a1:76:
                    9a:06:ea:3a:97:de:18:4d:99:98:fe:67:3c:d7:3a:
                    1a:a8:d1:0b:0b:6c:1c:42:9f:14:b9:17:8f:9e:a2:
                    76:0a:20:b6:d8:5e:ae:02:8e:3f:c3:65:30:78:18:
                    4b:57:ce:82:a3:d5:14:bf:63:4b:57:01:68:e2:f9:
                    fe:bf:58:1b:48:f0:67:1a:fb:a3:08:6d:49:f4:dd:
                    4c:55:2c:6b:e4:d8:74:0b:5b:f4:df:d1:b1:92:a5:
                    d0:67
                Exponent: 65537 (0x10001)
        X509v3 extensions:
            X509v3 Basic Constraints: 
                CA:FALSE
            Netscape Comment: 
                OpenSSL Generated Certificate
            X509v3 Subject Key Identifier: 
                7E:24:59:99:BC:1F:5E:C5:B7:0E:B6:CD:4F:8F:76:8C:8E:A9:EB:AE
            X509v3 Authority Key Identifier: 
                keyid:0F:69:55:70:1A:FE:34:5A:3A:60:8D:6C:09:96:A2:6E:F8:06:44:04

    Signature Algorithm: sha256WithRSAEncryption
         0b:3f:2d:70:a4:cd:8e:f6:ca:43:61:bb:26:3d:7c:fc:07:34:
         ba:7e:f5:7b:15:fa:fa:23:9d:78:f1:12:93:3f:d8:3b:43:46:
         37:e6:67:03:82:75:22:10:30:81:41:7c:2b:18:4e:78:97:20:
         0d:b7:ac:ae:4f:79:f8:ff:a9:8f:7d:06:33:5c:50:9e:31:56:
         17:c1:fb:fa:7a:78:a9:90:72:b6:39:0d:c8:63:16:a8:f7:98:
         64:3c:ca:42:45:7d:3e:d2:fe:8c:39:20:4a:60:82:11:6e:bb:
         1b:08:ed:85:e9:cc:63:36:c3:aa:e6:d8:9c:30:ef:44:57:36:
         53:7e:d3:2c:f3:4f:51:d6:ae:e3:f8:39:c1:2b:f1:fe:e4:2b:
         5c:95:87:4c:b6:eb:0d:e9:d1:6d:02:80:c4:bc:90:85:9b:c9:
         42:54:f0:17:28:66:1e:39:27:cc:56:f3:a7:81:24:a4:ea:03:
         a3:76:3d:2c:a1:14:f8:3d:d0:bb:f1:7b:3e:20:b3:a9:6a:e8:
         d8:32:7a:79:7a:45:de:32:0f:72:b7:5c:ac:b0:16:cd:37:94:
         26:b2:54:33:74:27:92:dc:64:20:e1:bb:4c:e6:82:b3:c8:98:
         66:f3:4f:b4:d1:c1:31:64:6a:24:45:78:53:33:10:2d:1c:42:
         fe:08:f6:08
-----BEGIN CERTIFICATE-----
MIID6TCCAtGgAwIBAgIBATANBgkqhkiG9w0BAQsFADCBgjELMAkGA1UEBhMCQ04x
EDAOBgNVBAgMB0JlaWppbmcxEDAOBgNVBAcMB0JlaWppbmcxDTALBgNVBAoMBHRz
bHMxDTALBgNVBAsMBHRzbHMxEjAQBgNVBAMMCWxvY2FsaG9zdDEdMBsGCSqGSIb3
DQEJARYOYWRtaW5AdHNscy5jb20wHhcNMTgxMjEzMjAxNzAwWhcNMTkxMjEzMjAx
NzAwWjBwMQswCQYDVQQGEwJDTjEQMA4GA1UECAwHQmVpamluZzENMAsGA1UECgwE
dHNsczENMAsGA1UECwwEdHNsczESMBAGA1UEAwwJbG9jYWxob3N0MR0wGwYJKoZI
hvcNAQkBFg5hZG1pbkB0c2xzLmNvbTCCASIwDQYJKoZIhvcNAQEBBQADggEPADCC
AQoCggEBAL05UDKvQqtnETdHyCOlGhNRJUariQYoYfBWH1oVfiDxZKG0uN2tlG+y
cOY5IsdKmQ4vvSQQEVx43+rCpeD3n8k/77nDyY0BZMtVyM/n2n+Pr7B+BCeZNxl8
XlUtSddVltjAMcCRtoGSIWESNxFsNvtqhlzm3/DZ1kADyENqWJzZeoPlSTD6jMv+
4Y9k8SoIhuDndmWtZ5QmeCbPulswMt7CiKF2mgbqOpfeGE2ZmP5nPNc6GqjRCwts
HEKfFLkXj56idgogtthergKOP8NlMHgYS1fOgqPVFL9jS1cBaOL5/r9YG0jwZxr7
owhtSfTdTFUsa+TYdAtb9N/RsZKl0GcCAwEAAaN7MHkwCQYDVR0TBAIwADAsBglg
hkgBhvhCAQ0EHxYdT3BlblNTTCBHZW5lcmF0ZWQgQ2VydGlmaWNhdGUwHQYDVR0O
BBYEFH4kWZm8H17Ftw62zU+PdoyOqeuuMB8GA1UdIwQYMBaAFA9pVXAa/jRaOmCN
bAmWom74BkQEMA0GCSqGSIb3DQEBCwUAA4IBAQALPy1wpM2O9spDYbsmPXz8BzS6
fvV7Ffr6I5148RKTP9g7Q0Y35mcDgnUiEDCBQXwrGE54lyANt6yuT3n4/6mPfQYz
XFCeMVYXwfv6enipkHK2OQ3IYxao95hkPMpCRX0+0v6MOSBKYIIRbrsbCO2F6cxj
NsOq5ticMO9EVzZTftMs809R1q7j+DnBK/H+5CtclYdMtusN6dFtAoDEvJCFm8lC
VPAXKGYeOSfMVvOngSSk6gOjdj0soRT4PdC78Xs+ILOpaujYMnp5ekXeMg9yt1ys
sBbNN5QmslQzdCeS3GQg4btM5oKzyJhm80+00cExZGokRXhTMxAtHEL+CPYI
-----END CERTIFICATE-----
